; Function Attrs: mustprogress nounwind uwtable
define void @_ZN8facebook5velox4exec20TryCallToSpecialForm11resolveTypeERKSt6vectorISt10shared_ptrIKNS0_4TypeEESaIS7_EE(ptr noalias nocapture writeonly sret(%"class.std::shared_ptr.4") align 8 %agg.result, ptr nocapture nonnull readnone align 8 %this, ptr nocapture noundef nonnull readonly align 8 dereferenceable(24) %argTypes) unnamed_addr #1 align 2 personality ptr @__gxx_personality_v0 {
entry:
  %_M_finish.i = getelementptr inbounds i8, ptr %argTypes, i64 8
  %0 = load ptr, ptr %_M_finish.i, align 8
  %1 = load ptr, ptr %argTypes, align 8
  %sub.ptr.lhs.cast.i = ptrtoint ptr %0 to i64
  %sub.ptr.rhs.cast.i = ptrtoint ptr %1 to i64
  %sub.ptr.sub.i = sub i64 %sub.ptr.lhs.cast.i, %sub.ptr.rhs.cast.i
  %cmp.not = icmp eq i64 %sub.ptr.sub.i, 16
  br i1 %cmp.not, label %if.end, label %if.then

if.then:                                          ; preds = %entry
  tail call void @llvm.trap()
  unreachable

if.end:                                           ; preds = %entry
  %2 = load <2 x ptr>, ptr %1, align 8
  store <2 x ptr> %2, ptr %agg.result, align 8
  %3 = extractelement <2 x ptr> %2, i64 1
  %cmp.not.i.i.i = icmp eq ptr %3, null
  br i1 %cmp.not.i.i.i, label %_ZNSt10shared_ptrIKN8facebook5velox4TypeEEC2ERKS4_.exit, label %if.then.i.i.i

if.then.i.i.i:                                    ; preds = %if.end
  %_M_use_count.i.i.i.i = getelementptr inbounds i8, ptr %3, i64 8
  %4 = load i8, ptr @__libc_single_threaded, align 1
  %tobool.i.i.not.i.i.i.i = icmp eq i8 %4, 0
  br i1 %tobool.i.i.not.i.i.i.i, label %if.else.i.i.i.i.i, label %if.then.i.i.i.i.i

if.then.i.i.i.i.i:                                ; preds = %if.then.i.i.i
  %5 = load i32, ptr %_M_use_count.i.i.i.i, align 4
  %add.i.i.i.i.i = add nsw i32 %5, 1
  store i32 %add.i.i.i.i.i, ptr %_M_use_count.i.i.i.i, align 4
  br label %_ZNSt10shared_ptrIKN8facebook5velox4TypeEEC2ERKS4_.exit

if.else.i.i.i.i.i:                                ; preds = %if.then.i.i.i
  %6 = atomicrmw volatile add ptr %_M_use_count.i.i.i.i, i32 1 acq_rel, align 4
  br label %_ZNSt10shared_ptrIKN8facebook5velox4TypeEEC2ERKS4_.exit

_ZNSt10shared_ptrIKN8facebook5velox4TypeEEC2ERKS4_.exit: ; preds = %if.end, %if.then.i.i.i.i.i, %if.else.i.i.i.i.i
  ret void
}